 0x000000000000000e (SONAME)             Library soname: [liblc0_lib.so]
_Z13GetVersionIntiii T
_Z13GetVersionStriiiRKNSt7__cxx1112basic_stringIcSt11char_traitsIcESaIcEEES6_ T
_ZGVZN5Eigen8internal20manage_caching_sizesENS_6ActionEPlS2_S2_E12m_cacheSizes B 8
_ZN6lczero10BoolOption15ProcessLongFlagERKNSt7__cxx1112basic_stringIcSt11char_traitsIcESaIcEEES8_PNS_11OptionsDictE T
_ZN6lczero10BoolOption16ProcessShortFlagEcPNS_11OptionsDictE T
_ZN6lczero10BoolOption18ValidateBoolStringERKNSt7__cxx1112basic_stringIcSt11char_traitsIcESaIcEEE T
_ZN6lczero10BoolOption8SetValueERKNSt7__cxx1112basic_stringIcSt11char_traitsIcESaIcEEEPNS_11OptionsDictE T
_ZN6lczero10BoolOptionC1ERKNS_8OptionIdE T
_ZN6lczero10BoolOptionC2ERKNS_8OptionIdE T
_ZN6lczero10ChessBoard10SetFromFenENSt7__cxx1112basic_stringIcSt11char_traitsIcESaIcEEEPiS7_ T
_ZN6lczero10ChessBoard12kStartposFenE D 8
_ZN6lczero10ChessBoard14kStartposBoardE B 30
_ZN6lczero10ChessBoard5ClearEv T
_ZN6lczero10ChessBoard6MirrorEv T
_ZN6lczero10ChessBoard9ApplyMoveENS_4MoveE T
_ZN6lczero10ChessBoard9kPawnMaskE R
_ZN6lczero10ConfigFile10arguments_B5cxx11E B 18
_ZN6lczero10ConfigFile15PopulateOptionsEPNS_13OptionsParserE T
_ZN6lczero10ConfigFile17ProcessConfigFlagERKSt6vectorINSt7__cxx1112basic_stringIcSt11char_traitsIcESaIcEEESaIS7_EE T
_ZN6lczero10ConfigFile4InitEv T
_ZN6lczero10ConfigFile9ParseFileERNSt7__cxx1112basic_stringIcSt11char_traitsIcESaIcEEE T
_ZN6lczero10EngineLoop10CmdIsReadyEv T
_ZN6lczero10EngineLoop11CmdPositionERKNSt7__cxx1112basic_stringIcSt11char_traitsIcESaIcEEERKSt6vectorIS6_SaIS6_EE T
_ZN6lczero10EngineLoop12CmdPonderHitEv T
_ZN6lczero10EngineLoop12CmdSetOptionERKNSt7__cxx1112basic_stringIcSt11char_traitsIcESaIcEEES8_S8_ T
_ZN6lczero10EngineLoop13CmdUciNewGameEv T
_ZN6lczero10EngineLoop5CmdGoERKNS_8GoParamsE T
_ZN6lczero10EngineLoop6CmdFenEv T
_ZN6lczero10EngineLoop6CmdUciEv T
_ZN6lczero10EngineLoop7CmdStopEv T
_ZN6lczero10EngineLoop7RunLoopEv T
_ZN6lczero10EngineLoopC1Ev T
_ZN6lczero10EngineLoopC2Ev T
_ZN6lczero10FormatTimeB5cxx11ENSt6chrono10time_pointINS0_3_V212system_clockENS0_8durationIlSt5ratioILl1ELl1000000000EEEEEE T
_ZN6lczero10LogMessageC1EPKci T
_ZN6lczero10LogMessageC2EPKci T
_ZN6lczero10LogMessageD0Ev T
_ZN6lczero10LogMessageD1Ev T
_ZN6lczero10LogMessageD2Ev T
_ZN6lczero11ApplySEUnitILb0EEEvmmmPKfS2_S2_S2_S2_S2_Pf T
_ZN6lczero11ApplySEUnitILb1EEEvmmmPKfS2_S2_S2_S2_S2_Pf T
_ZN6lczero11CommandLine10arguments_B5cxx11E B 18
_ZN6lczero11CommandLine12RegisterModeERKNSt7__cxx1112basic_stringIcSt11char_traitsIcESaIcEEES8_ T
_ZN6lczero11CommandLine14ConsumeCommandERKNSt7__cxx1112basic_stringIcSt11char_traitsIcESaIcEEE T
_ZN6lczero11CommandLine15BinaryDirectoryB5cxx11Ev T
_ZN6lczero11CommandLine4InitEiPPKc T
_ZN6lczero11CommandLine6modes_B5cxx11E B 18
_ZN6lczero11CommandLine7binary_B5cxx11E B 20
_ZN6lczero11FloatOption15ProcessLongFlagERKNSt7__cxx1112basic_stringIcSt11char_traitsIcESaIcEEES8_PNS_11OptionsDictE T
_ZN6lczero11FloatOption25ProcessShortFlagWithValueEcRKNSt7__cxx1112basic_stringIcSt11char_traitsIcESaIcEEEPNS_11OptionsDictE T
_ZN6lczero11FloatOption8SetValueERKNSt7__cxx1112basic_stringIcSt11char_traitsIcESaIcEEEPNS_11OptionsDictE T
_ZN6lczero11FloatOptionC1ERKNS_8OptionIdEff T
_ZN6lczero11FloatOptionC2ERKNS_8OptionIdEff T
_ZN6lczero11GetFileListERKNSt7__cxx1112basic_stringIcSt11char_traitsIcESaIcEEE T
_ZN6lczero11GetFileSizeERKNSt7__cxx1112basic_stringIcSt11char_traitsIcESaIcEEE T
_ZN6lczero11GetFileTimeERKNSt7__cxx1112basic_stringIcSt11char_traitsIcESaIcEEE T
_ZN6lczero11OnnxBuilder14AddInitializerERKNSt7__cxx1112basic_stringIcSt11char_traitsIcESaIcEEERKNS_9OnnxConstE T
_ZN6lczero11OnnxBuilder17GlobalAveragePoolERKNSt7__cxx1112basic_stringIcSt11char_traitsIcESaIcEEES8_ T
_ZN6lczero11OnnxBuilder3AddERKNSt7__cxx1112basic_stringIcSt11char_traitsIcESaIcEEES8_RKNS_9OnnxConstE T
_ZN6lczero11OnnxBuilder3AddERKNSt7__cxx1112basic_stringIcSt11char_traitsIcESaIcEEES8_S8_ T
_ZN6lczero11OnnxBuilder3MulERKNSt7__cxx1112basic_stringIcSt11char_traitsIcESaIcEEES8_S8_ T
_ZN6lczero11OnnxBuilder4ConvERKNSt7__cxx1112basic_stringIcSt11char_traitsIcESaIcEEES8_RKNS_9OnnxConstESB_i T
_ZN6lczero11OnnxBuilder4ReluERKNSt7__cxx1112basic_stringIcSt11char_traitsIcESaIcEEES8_ T
_ZN6lczero11OnnxBuilder4TanhERKNSt7__cxx1112basic_stringIcSt11char_traitsIcESaIcEEES8_ T
_ZN6lczero11OnnxBuilder5SplitERKNSt7__cxx1112basic_stringIcSt11char_traitsIcESaIcEEES8_i T
_ZN6lczero11OnnxBuilder6GatherERKNSt7__cxx1112basic_stringIcSt11char_traitsIcESaIcEEES8_S8_i T
_ZN6lczero11OnnxBuilder6MatMulERKNSt7__cxx1112basic_stringIcSt11char_traitsIcESaIcEEES8_RKNS_9OnnxConstE T
_ZN6lczero11OnnxBuilder7ReshapeERKNSt7__cxx1112basic_stringIcSt11char_traitsIcESaIcEEES8_S8_ T
_ZN6lczero11OnnxBuilder7SigmoidERKNSt7__cxx1112basic_stringIcSt11char_traitsIcESaIcEEES8_ T
_ZN6lczero11OnnxBuilder7SoftmaxERKNSt7__cxx1112basic_stringIcSt11char_traitsIcESaIcEEES8_ T
_ZN6lczero11OnnxBuilder7SqueezeERKNSt7__cxx1112basic_stringIcSt11char_traitsIcESaIcEEES8_ T
_ZN6lczero11OnnxBuilder8AddInputERKNSt7__cxx1112basic_stringIcSt11char_traitsIcESaIcEEESt16initializer_listIiEN8pblczero11TensorProto8DataTypeE T
_ZN6lczero11OnnxBuilder9AddOutputERKNSt7__cxx1112basic_stringIcSt11char_traitsIcESaIcEEESt16initializer_listIiEN8pblczero11TensorProto8DataTypeE T
_ZN6lczero11OnnxBuilderC1Ev T
_ZN6lczero11OnnxBuilderC2Ev T
_ZN6lczero11OptionsDict10AddSubdictERKNSt7__cxx1112basic_stringIcSt11char_traitsIcESaIcEEE T
_ZN6lczero11OptionsDict12AddAliasDictEPKS0_ T
_ZN6lczero11OptionsDict17GetMutableSubdictERKNSt7__cxx1112basic_stringIcSt11char_traitsIcESaIcEEE T
_ZN6lczero11OptionsDict20AddSubdictFromStringERKNSt7__cxx1112basic_stringIcSt11char_traitsIcESaIcEEE T
_ZN6lczero12ChoiceOption15ProcessLongFlagERKNSt7__cxx1112basic_stringIcSt11char_traitsIcESaIcEEES8_PNS_11OptionsDictE T
_ZN6lczero12ChoiceOption25ProcessShortFlagWithValueEcRKNSt7__cxx1112basic_stringIcSt11char_traitsIcESaIcEEEPNS_11OptionsDictE T
_ZN6lczero12ChoiceOption8SetValueERKNSt7__cxx1112basic_stringIcSt11char_traitsIcESaIcEEEPNS_11OptionsDictE T
_ZN6lczero12ChoiceOptionC1ERKNS_8OptionIdERKSt6vectorINSt7__cxx1112basic_stringIcSt11char_traitsIcESaIcEEESaISA_EE T
_ZN6lczero12ChoiceOptionC2ERKNS_8OptionIdERKSt6vectorINSt7__cxx1112basic_stringIcSt11char_traitsIcESaIcEEESaISA_EE T
_ZN6lczero12Convolution1ILb0EE7ForwardEmmmPKfS3_Pf T
_ZN6lczero12Convolution1ILb1EE7ForwardEmmmPKfS3_Pf T
_ZN6lczero12DepthStopper10ShouldStopERKNS_14IterationStatsEPNS_13StoppersHintsE T
_ZN6lczero12LayerAdapter8Iterator12ExtractValueEPKtPKS0_ T
_ZN6lczero12LayerAdapterC1ERKN8pblczero7Weights5LayerE T
_ZN6lczero12LayerAdapterC2ERKN8pblczero7Weights5LayerE T
_ZN6lczero12ParseIntListERKNSt7__cxx1112basic_stringIcSt11char_traitsIcESaIcEEE T
_ZN6lczero12ProtoMessage15MergeFromStringESt17basic_string_viewIcSt11char_traitsIcEE T
_ZN6lczero12ProtoMessage15ParseFromStringESt17basic_string_viewIcSt11char_traitsIcEE T
_ZN6lczero12SearchParams10kMultiPvIdE B 20
_ZN6lczero12SearchParams11kFpuValueIdE B 20
_ZN6lczero12SearchParams11kNpsLimitIdE B 20
_ZN6lczero12SearchParams12kCpuctBaseIdE B 20
_ZN6lczero12SearchParams12kScoreTypeIdE B 20
_ZN6lczero12SearchParams13kNoiseAlphaIdE B 20
_ZN6lczero12SearchParams14kCpuctAtRootIdE B 20
_ZN6lczero12SearchParams14kCpuctFactorIdE B 20
_ZN6lczero12SearchParams14kFpuStrategyIdE B 20
_ZN6lczero12SearchParams14kHistoryFillIdE B 20
_ZN6lczero12SearchParams14kTemperatureIdE B 20
_ZN6lczero12SearchParams15kLogLiveStatsIdE B 20
_ZN6lczero12SearchParams15kNoiseEpsilonIdE B 20
_ZN6lczero12SearchParams15kTwoFoldDrawsIdE B 20
_ZN6lczero12SearchParams15kVerboseStatsIdE B 20
_ZN6lczero12SearchParams16kMiniBatchSizeIdE B 20
_ZN6lczero12SearchParams16kPerPvCountersIdE B 20
_ZN6lczero12SearchParams17kDrawScoreBlackIdE B 20
_ZN6lczero12SearchParams17kDrawScoreWhiteIdE B 20
_ZN6lczero12SearchParams17kFpuValueAtRootIdE B 20
_ZN6lczero12SearchParams17kMovesLeftSlopeIdE B 20
_ZN6lczero12SearchParams17kOutOfOrderEvalIdE B 20
_ZN6lczero12SearchParams17kStickyEndgamesIdE B 20
_ZN6lczero12SearchParams17kSyzygyFastPlayIdE B 20
_ZN6lczero12SearchParams17kTempDecayMovesIdE B 20
_ZN6lczero12SearchParams18kCpuctBaseAtRootIdE B 20
_ZN6lczero12SearchParams19kMaxPrefetchBatchIdE B 20
_ZN6lczero12SearchParams20kCpuctFactorAtRootIdE B 20
_ZN6lczero12SearchParams20kDisplayCacheUsageIdE B 20
_ZN6lczero12SearchParams20kDrawScoreOpponentIdE B 20
_ZN6lczero12SearchParams20kFpuStrategyAtRootIdE B 20
_ZN6lczero12SearchParams20kIdlingMinimumWorkIdE B 20
_ZN6lczero12SearchParams20kPolicySoftmaxTempIdE B 20
_ZN6lczero12SearchParams21kCacheHistoryLengthIdE B 20
_ZN6lczero12SearchParams21kMaxCollisionEventsIdE B 20
_ZN6lczero12SearchParams21kMaxCollisionVisitsIdE B 20
_ZN6lczero12SearchParams21kMaxOutOfOrderEvalsIdE B 20
_ZN6lczero12SearchParams21kMovesLeftMaxEffectIdE B 20
_ZN6lczero12SearchParams21kMovesLeftThresholdIdE B 20
_ZN6lczero12SearchParams21kMultiGatherEnabledIdE B 20
_ZN6lczero12SearchParams21kSolidTreeThresholdIdE B 20
_ZN6lczero12SearchParams21kTemperatureEndgameIdE B 20
_ZN6lczero12SearchParams22kDrawScoreSidetomoveIdE B 20
_ZN6lczero12SearchParams22kTempDecayDelayMovesIdE B 20
_ZN6lczero12SearchParams24kMovesLeftScaledFactorIdE B 20
_ZN6lczero12SearchParams24kRootHasOwnCpuctParamsIdE B 20
_ZN6lczero12SearchParams24kTemperatureCutoffMoveIdE B 20
_ZN6lczero12SearchParams24kThreadIdlingThresholdIdE B 20
_ZN6lczero12SearchParams25kMaxConcurrentSearchersIdE B 20
_ZN6lczero12SearchParams25kTemperatureVisitOffsetIdE B 20
_ZN6lczero12SearchParams26kMovesLeftConstantFactorIdE B 20
_ZN6lczero12SearchParams26kTemperatureWinpctCutoffIdE B 20
_ZN6lczero12SearchParams27kMovesLeftQuadraticFactorIdE B 20
_ZN6lczero12SearchParams28kMinimumWorkSizeForPickingIdE B 20
_ZN6lczero12SearchParams29kTaskWorkersPerSearchWorkerIdE B 20
_ZN6lczero12SearchParams31kMaxCollisionVisitsScalingEndIdE B 20
_ZN6lczero12SearchParams31kMinimumWorkSizeForProcessingIdE B 20
_ZN6lczero12SearchParams33kMaxCollisionVisitsScalingPowerIdE B 20
_ZN6lczero12SearchParams33kMaxCollisionVisitsScalingStartIdE B 20
_ZN6lczero12SearchParams34kMinimumWorkPerTaskForProcessingIdE B 20
_ZN6lczero12SearchParams37kMinimumRemainingWorkSizeForPickingIdE B 20
_ZN6lczero12SearchParams8kCpuctIdE B 20
_ZN6lczero12SearchParams8PopulateEPNS_13OptionsParserE T
_ZN6lczero12SearchParamsC1ERKNS_11OptionsDictE T
_ZN6lczero12SearchParamsC2ERKNS_11OptionsDictE T
_ZN6lczero12SearchWorker10ExtendNodeEPNS_4NodeEi T
_ZN6lczero12SearchWorker10ExtendNodeEPNS_4NodeEiRKSt6vectorINS_4MoveESaIS4_EEPNS_15PositionHistoryE T
_ZN6lczero12SearchWorker10ResetTasksEv T
_ZN6lczero12SearchWorker12WaitForTasksEv T
_ZN6lczero12SearchWorker14DoBackupUpdateEv T
_ZN6lczero12SearchWorker14UpdateCountersEv T
_ZN6lczero12SearchWorker15GatherMinibatchEv T
_ZN6lczero12SearchWorker16GatherMinibatch2Ev T
_ZN6lczero12SearchWorker16PickNodeToExtendEi T
_ZN6lczero12SearchWorker16RunNNComputationEv T
_ZN6lczero12SearchWorker17CollectCollisionsEv T
_ZN6lczero12SearchWorker17PickNodesToExtendEi T
_ZN6lczero12SearchWorker17PrefetchIntoCacheEPNS_4NodeEib T
_ZN6lczero12SearchWorker17ProcessPickedTaskEiiPNS0_13TaskWorkspaceE T
_ZN6lczero12SearchWorker19ExecuteOneIterationEv T
_ZN6lczero12SearchWorker19InitializeIterationESt10unique_ptrINS_18NetworkComputationESt14default_deleteIS2_EE T
_ZN6lczero12SearchWorker20AddNodeToComputationEPNS_4NodeEbPi T
_ZN6lczero12SearchWorker21FetchMinibatchResultsEv T
_ZN6lczero12SearchWorker21PickNodesToExtendTaskEPNS_4NodeEiiRKSt6vectorINS_4MoveESaIS4_EEPS3_INS0_13NodeToProcessESaIS9_EEPNS0_13TaskWorkspaceE T
_ZN6lczero12SearchWorker22MaybePrefetchIntoCacheEv T
_ZN6lczero12SearchWorker24DoBackupUpdateSingleNodeERKNS0_13NodeToProcessE T
_ZN6lczero12SearchWorker32EnsureNodeTwoFoldCorrectForDepthEPNS_4NodeEi T
_ZN6lczero12SearchWorker8RunTasksEi T
_ZN6lczero12SelfPlayGame17PopulateUciParamsEPNS_13OptionsParserE T
_ZN6lczero12SelfPlayGame4PlayEiibPNS_15SyzygyTablebaseEb T
_ZN6lczero12SelfPlayGame5AbortEv T
_ZN6lczero12SelfPlayGameC1ENS_13PlayerOptionsES1_bRKNS_7OpeningE T
_ZN6lczero12SelfPlayGameC2ENS_13PlayerOptionsES1_bRKNS_7OpeningE T
_ZN6lczero12SelfPlayLoop12CmdSetOptionERKNSt7__cxx1112basic_stringIcSt11char_traitsIcESaIcEEES8_S8_ T
_ZN6lczero12SelfPlayLoop12SendGameInfoERKNS_8GameInfoE T
_ZN6lczero12SelfPlayLoop14SendTournamentERKNS_14TournamentInfoE T
_ZN6lczero12SelfPlayLoop6CmdUciEv T
_ZN6lczero12SelfPlayLoop7CmdStopEv T
_ZN6lczero12SelfPlayLoop7RunLoopEv T
_ZN6lczero12SelfPlayLoop8CmdStartEv T
_ZN6lczero12SelfPlayLoopC1Ev T
_ZN6lczero12SelfPlayLoopC2Ev T
_ZN6lczero12SelfPlayLoopD0Ev T
_ZN6lczero12SelfPlayLoopD1Ev T
_ZN6lczero12SelfPlayLoopD2Ev T
_ZN6lczero12StringOption15ProcessLongFlagERKNSt7__cxx1112basic_stringIcSt11char_traitsIcESaIcEEES8_PNS_11OptionsDictE T
_ZN6lczero12StringOption25ProcessShortFlagWithValueEcRKNSt7__cxx1112basic_stringIcSt11char_traitsIcESaIcEEEPNS_11OptionsDictE T
_ZN6lczero12StringOption8SetValueERKNSt7__cxx1112basic_stringIcSt11char_traitsIcESaIcEEEPNS_11OptionsDictE T
_ZN6lczero12StringOptionC1ERKNS_8OptionIdE T
_ZN6lczero12StringOptionC2ERKNS_8OptionIdE T
_ZN6lczero13kAutoDiscoverE D 8
_ZN6lczero13LegacyWeights6SEunitC1ERKN8pblczero7Weights6SEunitE T
_ZN6lczero13LegacyWeights6SEunitC2ERKN8pblczero7Weights6SEunitE T
_ZN6lczero13LegacyWeights8ResidualC1ERKN8pblczero7Weights8ResidualE T
_ZN6lczero13LegacyWeights8ResidualC2ERKN8pblczero7Weights8ResidualE T
_ZN6lczero13LegacyWeights9ConvBlockC1ERKN8pblczero7Weights9ConvBlockE T
_ZN6lczero13LegacyWeights9ConvBlockC2ERKN8pblczero7Weights9ConvBlockE T
_ZN6lczero13LegacyWeightsC1ERKN8pblczero7WeightsE T
_ZN6lczero13LegacyWeightsC2ERKN8pblczero7WeightsE T
_ZN6lczero13OptionsParser10AddContextERKNSt7__cxx1112basic_stringIcSt11char_traitsIcESaIcEEE T
_ZN6lczero13OptionsParser10HideOptionERKNS_8OptionIdE T
_ZN6lczero13OptionsParser12ProcessFlagsERKSt6vectorINSt7__cxx1112basic_stringIcSt11char_traitsIcESaIcEEESaIS7_EE T
_ZN6lczero13OptionsParser12SetUciOptionERKNSt7__cxx1112basic_stringIcSt11char_traitsIcESaIcEEES8_S8_ T
_ZN6lczero13OptionsParser14GetOptionsDictERKNSt7__cxx1112basic_stringIcSt11char_traitsIcESaIcEEE T
_ZN6lczero13OptionsParser15ProcessAllFlagsEv T
_ZN6lczero13OptionsParser17GetMutableOptionsERKNSt7__cxx1112basic_stringIcSt11char_traitsIcESaIcEEE T
_ZN6lczero13OptionsParser6OptionC1ERKNS_8OptionIdE T
_ZN6lczero13OptionsParser6OptionC2ERKNS_8OptionIdE T
_ZN6lczero13OptionsParserC1Ev T
_ZN6lczero13OptionsParserC2Ev T
_ZN6lczero13PopulateBoardEN8pblczero13NetworkFormat11InputFormatESt6vectorINS_10InputPlaneESaIS4_EEPNS_10ChessBoardEPiS9_ T
_ZN6lczero13StoppersHints18UpdateEstimatedNpsEf T
_ZN6lczero13StoppersHints30UpdateEstimatedRemainingTimeMsEl T
_ZN6lczero13StoppersHints32UpdateEstimatedRemainingPlayoutsEl T
_ZN6lczero13StoppersHints5ResetEv T
_ZN6lczero13StoppersHintsC1Ev T
_ZN6lczero13StoppersHintsC2Ev T
_ZN6lczero13VisitsStopper10ShouldStopERKNS_14IterationStatsEPNS_13StoppersHintsE T
_ZN6lczero14KldGainStopper10ShouldStopERKNS_14IterationStatsEPNS_13StoppersHintsE T
_ZN6lczero14KldGainStopperC1Efi T
_ZN6lczero14KldGainStopperC2Efi T
_ZN6lczero14kNNCacheSizeIdE B 20
_ZN6lczero14NetworkFactory10kBackendIdE B 20
_ZN6lczero14NetworkFactory10kWeightsIdE B 20
_ZN6lczero14NetworkFactory11LoadNetworkERKNS_11OptionsDictE T
_ZN6lczero14NetworkFactory15PopulateOptionsEPNS_13OptionsParserE T
_ZN6lczero14NetworkFactory15RegisterNetworkERKNSt7__cxx1112basic_stringIcSt11char_traitsIcESaIcEEESt8functionIFSt10unique_ptrINS_7NetworkESt14default_deleteISB_EERKSt8optionalIN8pblczero3NetEERKNS_11OptionsDictEEEi T
_ZN6lczero14NetworkFactory17kBackendOptionsIdE B 20
_ZN6lczero14NetworkFactory20BackendConfigurationC1ERKNS_11OptionsDictE T
_ZN6lczero14NetworkFactory20BackendConfigurationC2ERKNS_11OptionsDictE T
_ZN6lczero14NetworkFactory3GetEv T
_ZN6lczero14NetworkFactory6CreateERKNSt7__cxx1112basic_stringIcSt11char_traitsIcESaIcEEERKSt8optionalIN8pblczero3NetEERKNS_11OptionsDictE T
_ZN6lczero14NetworkFactory8RegisterC1ERKNSt7__cxx1112basic_stringIcSt11char_traitsIcESaIcEEESt8functionIFSt10unique_ptrINS_7NetworkESt14default_deleteISC_EERKSt8optionalIN8pblczero3NetEERKNS_11OptionsDictEEEi T
_ZN6lczero14NetworkFactory8RegisterC2ERKNSt7__cxx1112basic_stringIcSt11char_traitsIcESaIcEEESt8functionIFSt10unique_ptrINS_7NetworkESt14default_deleteISC_EERKSt8optionalIN8pblczero3NetEERKNS_11OptionsDictEEEi T
_ZN6lczero15CreateDirectoryERKNSt7__cxx1112basic_stringIcSt11char_traitsIcESaIcEEE T
_ZN6lczero15MakeTimeManagerERKNS_11OptionsDictE T
_ZN6lczero15PlayoutsStopper10ShouldStopERKNS_14IterationStatsEPNS_13StoppersHintsE T
_ZN6lczero15PositionHistory5ResetERKNS_10ChessBoardEii T
_ZN6lczero15PositionHistory6AppendENS_4MoveE T
_ZN6lczero15SyzygyTablebase10root_probeERKNS_8PositionEbPSt6vectorINS_4MoveESaIS5_EE T
_ZN6lczero15SyzygyTablebase14root_probe_wdlERKNS_8PositionEPSt6vectorINS_4MoveESaIS5_EE T
_ZN6lczero15SyzygyTablebase4initERKNSt7__cxx1112basic_stringIcSt11char_traitsIcESaIcEEE T
_ZN6lczero15SyzygyTablebase9probe_dtzERKNS_8PositionEPNS_10ProbeStateE T
_ZN6lczero15SyzygyTablebase9probe_wdlERKNS_8PositionEPNS_10ProbeStateE T
_ZN6lczero15SyzygyTablebaseC1Ev T
_ZN6lczero15SyzygyTablebaseC2Ev T
_ZN6lczero15SyzygyTablebaseD0Ev T
_ZN6lczero15SyzygyTablebaseD1Ev T
_ZN6lczero15SyzygyTablebaseD2Ev T
_ZN6lczero16BackendBenchmark3RunEv T
_ZN6lczero16BiasResidualReluEmmPfPKfS2_b T
_ZN6lczero16EngineController11EnsureReadyEv T
_ZN6lczero16EngineController11SetPositionERKNSt7__cxx1112basic_stringIcSt11char_traitsIcESaIcEEERKSt6vectorIS6_SaIS6_EE T
_ZN6lczero16EngineController13SetupPositionERKNSt7__cxx1112basic_stringIcSt11char_traitsIcESaIcEEERKSt6vectorIS6_SaIS6_EE T
_ZN6lczero16EngineController14ResetMoveTimerEv T
_ZN6lczero16EngineController15PopulateOptionsEPNS_13OptionsParserE T
_ZN6lczero16EngineController18ApplyPositionMovesEv T
_ZN6lczero16EngineController20UpdateFromUciOptionsEv T
_ZN6lczero16EngineController22CreateFreshTimeManagerEv T
_ZN6lczero16EngineController2GoERKNS_8GoParamsE T
_ZN6lczero16EngineController4StopEv T
_ZN6lczero16EngineController7NewGameEv T
_ZN6lczero16EngineController9PonderHitEv T
_ZN6lczero16EngineControllerC1ESt10unique_ptrINS_12UciResponderESt14default_deleteIS2_EERKNS_11OptionsDictE T
_ZN6lczero16EngineControllerC2ESt10unique_ptrINS_12UciResponderESt14default_deleteIS2_EERKNS_11OptionsDictE T
_ZN6lczero16ReadFileToStringERKNSt7__cxx1112basic_stringIcSt11char_traitsIcESaIcEEE T
_ZN6lczero16StderrLogMessageC1EPKci T
_ZN6lczero16StderrLogMessageC2EPKci T
_ZN6lczero16StderrLogMessageD0Ev T
_ZN6lczero16StderrLogMessageD1Ev T
_ZN6lczero16StderrLogMessageD2Ev T
_ZN6lczero16StdoutLogMessageC1EPKci T
_ZN6lczero16StdoutLogMessageC2EPKci T
_ZN6lczero16StdoutLogMessageD0Ev T
_ZN6lczero16StdoutLogMessageD1Ev T
_ZN6lczero16StdoutLogMessageD2Ev T
_ZN6lczero16TimeLimitStopper10ShouldStopERKNS_14IterationStatsEPNS_13StoppersHintsE T
_ZN6lczero16TimeLimitStopperC1El T
_ZN6lczero16TimeLimitStopperC2El T
_ZN6lczero17IsCanonicalFormatEN8pblczero13NetworkFormat11InputFormatE T
_ZN6lczero17MakeRandomNetworkERKSt8optionalIN8pblczero3NetEERKNS_11OptionsDictE T
_ZN6lczero17SoftmaxActivationEmPKfPf T
_ZN6lczero17WriteStringToFileERKNSt7__cxx1112basic_stringIcSt11char_traitsIcESaIcEEESt17basic_string_viewIcS3_E T
_ZN6lczero18CachingComputation11PopCacheHitEv T
_ZN6lczero18CachingComputation14AddInputByHashEm T
_ZN6lczero18CachingComputation14AddInputByHashEmONS_18HashKeyedCacheLockINS_15CachedNNRequestEEE T
_ZN6lczero18CachingComputation15ComputeBlockingEv T
_ZN6lczero18CachingComputation15PopLastInputHitEv T
_ZN6lczero18CachingComputation8AddInputEmOSt6vectorINS_10InputPlaneESaIS2_EEOS1_ItSaItEE T
_ZN6lczero18CachingComputationC1ESt10unique_ptrINS_18NetworkComputationESt14default_deleteIS2_EEPNS_14HashKeyedCacheINS_15CachedNNRequestEEE T
_ZN6lczero18CachingComputationC2ESt10unique_ptrINS_18NetworkComputationESt14default_deleteIS2_EEPNS_14HashKeyedCacheINS_15CachedNNRequestEEE T
_ZN6lczero18ConvertLeelaToOnnxEv T
_ZN6lczero18ConvertOnnxToLeelaEv T
_ZN6lczero18DescribeNetworkCmdEv T
_ZN6lczero18IsHectopliesFormatEN8pblczero13NetworkFormat11InputFormatE T
_ZN6lczero18SelfPlayTournament10StartAsyncEv T
_ZN6lczero18SelfPlayTournament11PlayOneGameEi T
_ZN6lczero18SelfPlayTournament11RunBlockingEv T
_ZN6lczero18SelfPlayTournament15PopulateOptionsEPNS_13OptionsParserE T
_ZN6lczero18SelfPlayTournament4StopEv T
_ZN6lczero18SelfPlayTournament4WaitEv T
_ZN6lczero18SelfPlayTournament5AbortEv T
_ZN6lczero18SelfPlayTournament6WorkerEv T
_ZN6lczero18SelfPlayTournamentC1ERKNS_11OptionsDictESt8functionIFvRKNS_12BestMoveInfoEEES4_IFvRKSt6vectorINS_12ThinkingInfoESaISB_EEEES4_IFvRKNS_8GameInfoEEES4_IFvRKNS_14TournamentInfoEEE T
_ZN6lczero18SelfPlayTournamentC2ERKNS_11OptionsDictESt8functionIFvRKNS_12BestMoveInfoEEES4_IFvRKSt6vectorINS_12ThinkingInfoESaISB_EEEES4_IFvRKNS_8GameInfoEEES4_IFvRKNS_14TournamentInfoEEE T
_ZN6lczero18SelfPlayTournamentD1Ev T
_ZN6lczero18SelfPlayTournamentD2Ev T
_ZN6lczero18ShowAllNetworkInfoERKN8pblczero3NetE T
_ZN6lczero18TrainingDataReader9ReadChunkEPNS_14V6TrainingDataE T
_ZN6lczero18TrainingDataReaderC1ENSt7__cxx1112basic_stringIcSt11char_traitsIcESaIcEEE T
_ZN6lczero18TrainingDataReaderC2ENSt7__cxx1112basic_stringIcSt11char_traitsIcESaIcEEE T
_ZN6lczero18TrainingDataReaderD1Ev T
_ZN6lczero18TrainingDataReaderD2Ev T
_ZN6lczero18TrainingDataWriter10WriteChunkERKNS_14V6TrainingDataE T
_ZN6lczero18TrainingDataWriter8FinalizeEv T
_ZN6lczero18TrainingDataWriterC1Ei T
_ZN6lczero18TrainingDataWriterC2Ei T
_ZN6lczero19DecodeMoveFromInputERKSt6vectorINS_10InputPlaneESaIS1_EES5_ T
_ZN6lczero19DiscoverWeightsFileB5cxx11Ev T
_ZN6lczero19EncodePositionForNNEN8pblczero13NetworkFormat11InputFormatERKNS_15PositionHistoryEiNS_16FillEmptyHistoryEPi T
_ZN6lczero19FullyConnectedLayerILb0EE9Forward0DEmPKfS3_ T
_ZN6lczero19FullyConnectedLayerILb0EE9Forward1DEmmmPKfS3_S3_bPf T
_ZN6lczero19FullyConnectedLayerILb1EE9Forward0DEmPKfS3_ T
_ZN6lczero19FullyConnectedLayerILb1EE9Forward1DEmmmPKfS3_S3_bPf T
_ZN6lczero19Is960CastlingFormatEN8pblczero13NetworkFormat11InputFormatE T
_ZN6lczero19LoadWeightsFromFileERKNSt7__cxx1112basic_stringIcSt11char_traitsIcESaIcEEE T
_ZN6lczero19ShowNetworkOnnxInfoERKN8pblczero3NetEb T
_ZN6lczero19SmartPruningStopper10ShouldStopERKNS_14IterationStatsEPNS_13StoppersHintsE T
_ZN6lczero19SmartPruningStopperC1Efl T
_ZN6lczero19SmartPruningStopperC2Efl T
_ZN6lczero19WriteStringToGzFileERKNSt7__cxx1112basic_stringIcSt11char_traitsIcESaIcEEESt17basic_string_viewIcS3_E T
_ZN6lczero20ChainedSearchStopper10AddStopperESt10unique_ptrINS_13SearchStopperESt14default_deleteIS2_EE T
_ZN6lczero20ChainedSearchStopper10ShouldStopERKNS_14IterationStatsEPNS_13StoppersHintsE T
_ZN6lczero20ChainedSearchStopper12OnSearchDoneERKNS_14IterationStatsE T
_ZN6lczero20ConvertWeightsToOnnxERKN8pblczero3NetERKNS_29WeightsToOnnxConverterOptionsE T
_ZN6lczero20GetUserDataDirectoryB5cxx11Ev T
_ZN6lczero20StrSplitAtWhitespaceERKNSt7__cxx1112basic_stringIcSt11char_traitsIcESaIcEEE T
_ZN6lczero20TransformForPositionEN8pblczero13NetworkFormat11InputFormatERKNS_15PositionHistoryE T
_ZN6lczero20WinogradConvolution3ILb0EE11TransformInEmPKfm T
_ZN6lczero20WinogradConvolution3ILb0EE12TransformOutEmPfm T
_ZN6lczero20WinogradConvolution3ILb0EE13kWinogradTileE R
_ZN6lczero20WinogradConvolution3ILb0EE14kWinogradAlphaE R
_ZN6lczero20WinogradConvolution3ILb0EE5SgemmEmPKfmm T
_ZN6lczero20WinogradConvolution3ILb0EE6kTilesE R
_ZN6lczero20WinogradConvolution3ILb0EE6kWidthE R
_ZN6lczero20WinogradConvolution3ILb0EE7ForwardEmmmPKfS3_Pf T
_ZN6lczero20WinogradConvolution3ILb0EE7kHeightE R
_ZN6lczero20WinogradConvolution3ILb0EE7kWtilesE R
_ZN6lczero20WinogradConvolution3ILb0EE8kSquaresE R
_ZN6lczero20WinogradConvolution3ILb0EEC1Emmm T
_ZN6lczero20WinogradConvolution3ILb0EEC2Emmm T
_ZN6lczero20WinogradConvolution3ILb1EE11TransformInEmPKfm T
_ZN6lczero20WinogradConvolution3ILb1EE12TransformOutEmPfm T
_ZN6lczero20WinogradConvolution3ILb1EE13kWinogradTileE R
_ZN6lczero20WinogradConvolution3ILb1EE14kWinogradAlphaE R
_ZN6lczero20WinogradConvolution3ILb1EE5SgemmEmPKfmm T
_ZN6lczero20WinogradConvolution3ILb1EE6kTilesE R
_ZN6lczero20WinogradConvolution3ILb1EE6kWidthE R
_ZN6lczero20WinogradConvolution3ILb1EE7ForwardEmmmPKfS3_Pf T
_ZN6lczero20WinogradConvolution3ILb1EE7kHeightE R
_ZN6lczero20WinogradConvolution3ILb1EE7kWtilesE R
_ZN6lczero20WinogradConvolution3ILb1EE8kSquaresE R
_ZN6lczero20WinogradConvolution3ILb1EEC1Emmm T
_ZN6lczero20WinogradConvolution3ILb1EEC2Emmm T
_ZN6lczero21GetUserCacheDirectoryB5cxx11Ev T
_ZN6lczero21MakeCommonTimeManagerESt10unique_ptrINS_11TimeManagerESt14default_deleteIS1_EERKNS_11OptionsDictEl T
_ZN6lczero21MakeLegacyTimeManagerElRKNS_11OptionsDictE T
_ZN6lczero21MakeSmoothTimeManagerElRKNS_11OptionsDictE T
_ZN6lczero21MemoryWatchingStopperC1Eiib T
_ZN6lczero21MemoryWatchingStopperC2Eiib T
_ZN6lczero21ShowNetworkFormatInfoERKN8pblczero3NetE T
_ZN6lczero22GetUserConfigDirectoryB5cxx11Ev T
_ZN6lczero22PlanesFromTrainingDataERKNS_14V6TrainingDataE T
_ZN6lczero22ShowNetworkGenericInfoERKN8pblczero3NetE T
_ZN6lczero22ShowNetworkWeightsInfoERKN8pblczero3NetE T
_ZN6lczero22StringsEqualIgnoreCaseERKNSt7__cxx1112basic_stringIcSt11char_traitsIcESaIcEEES7_ T
_ZN6lczero22WinogradFilterZeropadUERKSt6vectorIfSaIfEEmmmm T
_ZN6lczero23FloatOnnxWeightsAdapterC1ERKSt6vectorIfSaIfEESt16initializer_listIiES7_ T
_ZN6lczero23FloatOnnxWeightsAdapterC2ERKSt6vectorIfSaIfEESt16initializer_listIiES7_ T
_ZN6lczero23ShowNetworkTrainingInfoERKN8pblczero3NetE T
_ZN6lczero24InitializeMagicBitboardsEv T
_ZN6lczero24MakeAlphazeroTimeManagerElRKNS_11OptionsDictE T
_ZN6lczero24SteadyClockToSystemClockENSt6chrono10time_pointINS0_3_V212steady_clockENS0_8durationIlSt5ratioILl1ELl1000000000EEEEEE T
_ZN6lczero24WinogradFilterTransformFERKSt6vectorIfSaIfEEmm T
_ZN6lczero25ComputeEstimatedMovesToGoEiff T
_ZN6lczero25PopulateIntrinsicStoppersEPNS_20ChainedSearchStopperERKNS_11OptionsDictE T
_ZN6lczero26GetSystemDataDirectoryListB5cxx11Ev T
_ZN6lczero27IsCanonicalArmageddonFormatEN8pblczero13NetworkFormat11InputFormatE T
_ZN6lczero28GetSystemConfigDirectoryListB5cxx11Ev T
_ZN6lczero28PopulateCommonStopperOptionsENS_7RunTypeEPNS_13OptionsParserE T
_ZN6lczero29PopulateTimeManagementOptionsENS_7RunTypeEPNS_13OptionsParserE T
_ZN6lczero4Edge12FromMovelistERKSt6vectorINS_4MoveESaIS2_EE T
_ZN6lczero4Edge4SetPEf T
_ZN6lczero4MoveC1ERKNSt7__cxx1112basic_stringIcSt11char_traitsIcESaIcEEEb T
_ZN6lczero4MoveC2ERKNSt7__cxx1112basic_stringIcSt11char_traitsIcESaIcEEEb T
_ZN6lczero4Node11CreateEdgesERKSt6vectorINS_4MoveESaIS2_EE T
_ZN6lczero4Node12MakeTerminalENS_10GameResultEfNS0_8TerminalE T
_ZN6lczero4Node15MakeNotTerminalEv T
_ZN6lczero4Node15ReleaseChildrenEv T
_ZN6lczero4Node15UpdateBestChildERKNS_13Edge_IteratorILb0EEEi T
_ZN6lczero4Node17AdjustForTerminalEfffi T
_ZN6lczero4Node17CancelScoreUpdateEi T
_ZN6lczero4Node19FinalizeScoreUpdateEfffi T
_ZN6lczero4Node19TryStartScoreUpdateEv T
_ZN6lczero4Node20RevertTerminalVisitsEfffi T
_ZN6lczero4Node21CreateSingleChildNodeENS_4MoveE T
_ZN6lczero4Node21UpdateChildrenParentsEv T
_ZN6lczero4Node24ReleaseChildrenExceptOneEPS0_ T
_ZN6lczero4Node5EdgesEv T
_ZN6lczero4Node9MakeSolidEv T
_ZN6lczero4Node9SetBoundsENS_10GameResultES1_ T
_ZN6lczero4Node9SortEdgesEv T
_ZN6lczero4Numa10BindThreadEi T
_ZN6lczero4Numa17threads_per_core_E D 4
_ZN6lczero4Numa4InitEv T
_ZN6lczero4TrimENSt7__cxx1112basic_stringIcSt11char_traitsIcESaIcEEE T
_ZN6lczero6GetFenB5cxx11ERKNS_8PositionE T
_ZN6lczero6kEmbedE D 8
_ZN6lczero6Random3GetEv T
_ZN6lczero6Random6GetIntEii T
_ZN6lczero6Random7GetBoolEv T
_ZN6lczero6Random8GetFloatEf T
_ZN6lczero6Random8GetGammaEdd T
_ZN6lczero6Random9GetDoubleEd T
_ZN6lczero6Random9GetStringB5cxx11Ei T
_ZN6lczero6RandomC1Ev T
_ZN6lczero6RandomC2Ev T
_ZN6lczero6Search11GetBestMoveEv T
_ZN6lczero6Search11RunBlockingEm T
_ZN6lczero6Search11SendUciInfoEv T
_ZN6lczero6Search12StartThreadsEm T
_ZN6lczero6Search13ResetBestMoveEv T
_ZN6lczero6Search14WatchdogThreadEv T
_ZN6lczero6Search15MaybeOutputInfoEv T
_ZN6lczero6Search16FireStopInternalEv T
_ZN6lczero6Search16MaybeTriggerStopERKNS_14IterationStatsEPNS_13StoppersHintsE T
_ZN6lczero6Search19EnsureBestMoveKnownEv T
_ZN6lczero6Search22CancelSharedCollisionsEv T
_ZN6lczero6Search28PopulateCommonIterationStatsEPNS_14IterationStatsE T
_ZN6lczero6Search4StopEv T
_ZN6lczero6Search4WaitEv T
_ZN6lczero6Search5AbortEv T
_ZN6lczero6SearchC1ERKNS_8NodeTreeEPNS_7NetworkESt10unique_ptrINS_12UciResponderESt14default_deleteIS7_EERKSt6vectorINS_4MoveESaISC_EENSt6chrono10time_pointINSH_3_V212steady_clockENSH_8durationIlSt5ratioILl1ELl1000000000EEEEEES6_INS_13SearchStopperES8_ISQ_EEbRKNS_11OptionsDictEPNS_14HashKeyedCacheINS_15CachedNNRequestEEEPNS_15SyzygyTablebaseE T
_ZN6lczero6SearchC2ERKNS_8NodeTreeEPNS_7NetworkESt10unique_ptrINS_12UciResponderESt14default_deleteIS7_EERKSt6vectorINS_4MoveESaISC_EENSt6chrono10time_pointINSH_3_V212steady_clockENSH_8durationIlSt5ratioILl1ELl1000000000EEEEEES6_INS_13SearchStopperES8_ISQ_EEbRKNS_11OptionsDictEPNS_14HashKeyedCacheINS_15CachedNNRequestEEEPNS_15SyzygyTablebaseE T
_ZN6lczero6SearchD1Ev T
_ZN6lczero6SearchD2Ev T
_ZN6lczero7Logging11SetFilenameERKNSt7__cxx1112basic_stringIcSt11char_traitsIcESaIcEEE T
_ZN6lczero7Logging12WriteLineRawERKNSt7__cxx1112basic_stringIcSt11char_traitsIcESaIcEEE T
_ZN6lczero7Logging3GetEv T
_ZN6lczero7StrJoinERKSt6vectorINSt7__cxx1112basic_stringIcSt11char_traitsIcESaIcEEESaIS6_EERKS6_ T
_ZN6lczero7UciLoop12SendBestMoveERKNS_12BestMoveInfoE T
_ZN6lczero7UciLoop12SendResponseERKNSt7__cxx1112basic_stringIcSt11char_traitsIcESaIcEEE T
_ZN6lczero7UciLoop13SendResponsesERKSt6vectorINSt7__cxx1112basic_stringIcSt11char_traitsIcESaIcEEESaIS7_EE T
_ZN6lczero7UciLoop15DispatchCommandERKNSt7__cxx1112basic_stringIcSt11char_traitsIcESaIcEEERKSt13unordered_mapIS6_S6_St4hashIS6_ESt8equal_toIS6_ESaISt4pairIS7_S6_EEE T
_ZN6lczero7UciLoop6SendIdEv T
_ZN6lczero7UciLoop7RunLoopEv T
_ZN6lczero7UciLoop8SendInfoERKSt6vectorINS_12ThinkingInfoESaIS2_EE T
_ZN6lczero8EscCodes4InitEv T
_ZN6lczero8EscCodes8enabled_E B 1
_ZN6lczero8FlowTextERKNSt7__cxx1112basic_stringIcSt11char_traitsIcESaIcEEEm T
_ZN6lczero8LeftTrimENSt7__cxx1112basic_stringIcSt11char_traitsIcESaIcEEE T
_ZN6lczero8NodeTree14DeallocateTreeEv T
_ZN6lczero8NodeTree14TrimTreeAtHeadEv T
_ZN6lczero8NodeTree15ResetToPositionERKNSt7__cxx1112basic_stringIcSt11char_traitsIcESaIcEEERKSt6vectorINS_4MoveESaISA_EE T
_ZN6lczero8NodeTree8MakeMoveENS_4MoveE T
_ZN6lczero8PositionC1ERKNS_10ChessBoardEii T
_ZN6lczero8PositionC1ERKS0_NS_4MoveE T
_ZN6lczero8PositionC2ERKNS_10ChessBoardEii T
_ZN6lczero8PositionC2ERKS0_NS_4MoveE T
_ZN6lczero8StrSplitERKNSt7__cxx1112basic_stringIcSt11char_traitsIcESaIcEEES7_ T
_ZN6lczero9Benchmark10OnBestMoveERKNS_12BestMoveInfoE T
_ZN6lczero9Benchmark3RunEv T
_ZN6lczero9Benchmark6OnInfoERKSt6vectorINS_12ThinkingInfoESaIS2_EE T
_ZN6lczero9Histogram3AddEd T
_ZN6lczero9Histogram5ClearEv T
_ZN6lczero9HistogramC1Eiii T
_ZN6lczero9HistogramC1Ev T
_ZN6lczero9HistogramC2Eiii T
_ZN6lczero9HistogramC2Ev T
_ZN6lczero9IntOption15ProcessLongFlagERKNSt7__cxx1112basic_stringIcSt11char_traitsIcESaIcEEES8_PNS_11OptionsDictE T
_ZN6lczero9IntOption25ProcessShortFlagWithValueEcRKNSt7__cxx1112basic_stringIcSt11char_traitsIcESaIcEEEPNS_11OptionsDictE T
_ZN6lczero9IntOption8SetValueERKNSt7__cxx1112basic_stringIcSt11char_traitsIcESaIcEEEPNS_11OptionsDictE T
_ZN6lczero9IntOptionC1ERKNS_8OptionIdEii T
_ZN6lczero9IntOptionC2ERKNS_8OptionIdEii T
_ZN6lczero9RightTrimENSt7__cxx1112basic_stringIcSt11char_traitsIcESaIcEEE T
_ZN6lczerongERKNS_10GameResultE T
_ZN8pblczero13NetworkFormat16InputFormat_NameB5cxx11ENS0_11InputFormatE T
_ZN8pblczero13NetworkFormat16ValueFormat_NameB5cxx11ENS0_11ValueFormatE T
_ZN8pblczero13NetworkFormat17PolicyFormat_NameB5cxx11ENS0_12PolicyFormatE T
_ZN8pblczero13NetworkFormat20MovesLeftFormat_NameB5cxx11ENS0_15MovesLeftFormatE T
_ZN8pblczero13NetworkFormat21InputFormat_AllValuesE R
_ZN8pblczero13NetworkFormat21ValueFormat_AllValuesE R
_ZN8pblczero13NetworkFormat22PolicyFormat_AllValuesE R
_ZN8pblczero13NetworkFormat25MovesLeftFormat_AllValuesE R
_ZN8pblczero9OnnxModel13DataType_NameB5cxx11ENS0_8DataTypeE T
_ZN8pblczero9OnnxModel18DataType_AllValuesE R
_ZNK6lczero10BoolOption15GetOptionStringB5cxx11ERKNS_11OptionsDictE T
_ZNK6lczero10BoolOption6GetValERKNS_11OptionsDictE T
_ZNK6lczero10BoolOption6SetValEPNS_11OptionsDictERKb T
_ZNK6lczero10BoolOption7GetHelpB5cxx11ERKNS_11OptionsDictE T
_ZNK6lczero10ChessBoard10IsSameMoveENS_4MoveES1_ T
_ZNK6lczero10ChessBoard11DebugStringB5cxx11Ev T
_ZNK6lczero10ChessBoard11IsLegalMoveENS_4MoveERKNS_14KingAttackInfoE T
_ZNK6lczero10ChessBoard13GetLegacyMoveENS_4MoveE T
_ZNK6lczero10ChessBoard13GetModernMoveENS_4MoveE T
_ZNK6lczero10ChessBoard13IsUnderAttackENS_11BoardSquareE T
_ZNK6lczero10ChessBoard17HasMatingMaterialEv T
_ZNK6lczero10ChessBoard18GenerateLegalMovesEv T
_ZNK6lczero10ChessBoard22GenerateKingAttackInfoEv T
_ZNK6lczero10ChessBoard24GeneratePseudolegalMovesEv T
_ZNK6lczero11EdgeAndNode11DebugStringB5cxx11Ev T
_ZNK6lczero11FloatOption15GetOptionStringB5cxx11ERKNS_11OptionsDictE T
_ZNK6lczero11FloatOption6GetValERKNS_11OptionsDictE T
_ZNK6lczero11FloatOption6SetValEPNS_11OptionsDictERKf T
_ZNK6lczero11FloatOption7GetHelpB5cxx11ERKNS_11OptionsDictE T
_ZNK6lczero11OptionsDict10GetSubdictERKNSt7__cxx1112basic_stringIcSt11char_traitsIcESaIcEEE T
_ZNK6lczero11OptionsDict10HasSubdictERKNSt7__cxx1112basic_stringIcSt11char_traitsIcESaIcEEE T
_ZNK6lczero11OptionsDict12ListSubdictsB5cxx11Ev T
_ZNK6lczero11OptionsDict19CheckAllOptionsReadERKNSt7__cxx1112basic_stringIcSt11char_traitsIcESaIcEEE T
_ZNK6lczero12ChoiceOption15GetOptionStringB5cxx11ERKNS_11OptionsDictE T
_ZNK6lczero12ChoiceOption6GetValB5cxx11ERKNS_11OptionsDictE T
_ZNK6lczero12ChoiceOption6SetValEPNS_11OptionsDictERKNSt7__cxx1112basic_stringIcSt11char_traitsIcESaIcEEE T
_ZNK6lczero12ChoiceOption7GetHelpB5cxx11ERKNS_11OptionsDictE T
_ZNK6lczero12LayerAdapter8IteratordeEv T
_ZNK6lczero12LayerAdapter8IteratorixEm T
_ZNK6lczero12LayerAdapter9as_vectorEv T
_ZNK6lczero12ProtoMessage11AppendInt32EijPNSt7__cxx1112basic_stringIcSt11char_traitsIcESaIcEEE T
_ZNK6lczero12ProtoMessage11AppendInt64EimPNSt7__cxx1112basic_stringIcSt11char_traitsIcESaIcEEE T
_ZNK6lczero12ProtoMessage12AppendStringEiSt17basic_string_viewIcSt11char_traitsIcEEPNSt7__cxx1112basic_stringIcS3_SaIcEEE T
_ZNK6lczero12ProtoMessage12AppendVarIntEimPNSt7__cxx1112basic_stringIcSt11char_traitsIcESaIcEEE T
_ZNK6lczero12SearchWorker14MaybeSetBoundsEPNS_4NodeEfPiPfS4_S4_ T
_ZNK6lczero12SelfPlayGame17WriteTrainingDataEPNS_18TrainingDataWriterE T
_ZNK6lczero12SelfPlayGame27GetWorstEvalForWinnerOrDrawEv T
_ZNK6lczero12SelfPlayGame8GetMovesEv T
_ZNK6lczero12StringOption15GetOptionStringB5cxx11ERKNS_11OptionsDictE T
_ZNK6lczero12StringOption6GetValB5cxx11ERKNS_11OptionsDictE T
_ZNK6lczero12StringOption6SetValEPNS_11OptionsDictERKNSt7__cxx1112basic_stringIcSt11char_traitsIcESaIcEEE T
_ZNK6lczero12StringOption7GetHelpB5cxx11ERKNS_11OptionsDictE T
_ZNK6lczero13OptionsParser10ShowHiddenEv T
_ZNK6lczero13OptionsParser14FindOptionByIdERKNS_8OptionIdE T
_ZNK6lczero13OptionsParser14ListOptionsUciB5cxx11Ev T
_ZNK6lczero13OptionsParser19FindOptionByUciNameERKNSt7__cxx1112basic_stringIcSt11char_traitsIcESaIcEEE T
_ZNK6lczero13OptionsParser20FindOptionByLongFlagERKNSt7__cxx1112basic_stringIcSt11char_traitsIcESaIcEEE T
_ZNK6lczero13OptionsParser8ShowHelpEv T
_ZNK6lczero13StoppersHints15GetEstimatedNpsEv T
_ZNK6lczero13StoppersHints27GetEstimatedRemainingTimeMsEv T
_ZNK6lczero13StoppersHints29GetEstimatedRemainingPlayoutsEv T
_ZNK6lczero14NetworkFactory15GetBackendsListB5cxx11Ev T
_ZNK6lczero14NetworkFactory20BackendConfigurationeqERKS1_ T
_ZNK6lczero14SelfPlayLimits17MakeSearchStopperEv T
_ZNK6lczero15PositionHistory17ComputeGameResultEv T
_ZNK6lczero15PositionHistory26ComputeLastMoveRepetitionsEPi T
_ZNK6lczero15PositionHistory29DidRepeatSinceLastZeroingMoveEv T
_ZNK6lczero15PositionHistory8HashLastEi T
_ZNK6lczero16TimeLimitStopper14GetTimeLimitMsEv T
_ZNK6lczero18CachingComputation12GetBatchSizeEv T
_ZNK6lczero18CachingComputation14GetCacheMissesEv T
_ZNK6lczero18CachingComputation7GetDValEi T
_ZNK6lczero18CachingComputation7GetMValEi T
_ZNK6lczero18CachingComputation7GetPValEii T
_ZNK6lczero18CachingComputation7GetQValEi T
_ZNK6lczero23FloatOnnxWeightsAdapter10GetRawDataB5cxx11Ev T
_ZNK6lczero23FloatOnnxWeightsAdapter11GetDataTypeEv T
_ZNK6lczero23FloatOnnxWeightsAdapter13GetDimensionsEv T
_ZNK6lczero4Edge11DebugStringB5cxx11Ev T
_ZNK6lczero4Edge4GetPEv T
_ZNK6lczero4Edge7GetMoveEb T
_ZNK6lczero4Move11as_nn_indexEi T
_ZNK6lczero4Move13as_packed_intEv T
_ZNK6lczero4Node10GetOwnEdgeEv T
_ZNK6lczero4Node11DebugStringB5cxx11Ev T
_ZNK6lczero4Node13GetEdgeToNodeEPKS0_ T
_ZNK6lczero4Node16GetVisitedPolicyEv T
_ZNK6lczero4Node17GetV6TrainingDataENS_10GameResultERKNS_15PositionHistoryENS_16FillEmptyHistoryEN8pblczero13NetworkFormat11InputFormatENS_4EvalES9_bNS_4MoveESA_RKNS_18HashKeyedCacheLockINS_15CachedNNRequestEEE T
_ZNK6lczero4Node5EdgesEv T
_ZNK6lczero6Search11GetBestEvalEPNS_4MoveEPb T
_ZNK6lczero6Search12GetDrawScoreEb T
_ZNK6lczero6Search14IsSearchActiveEv T
_ZNK6lczero6Search14SendMovesStatsEv T
_ZNK6lczero6Search15GetCachedNNEvalEPKNS_4NodeE T
_ZNK6lczero6Search15GetVerboseStatsB5cxx11EPNS_4NodeE T
_ZNK6lczero6Search16GetTotalPlayoutsEv T
_ZNK6lczero6Search17GetTimeSinceStartEv T
_ZNK6lczero6Search22GetTimeSinceFirstBatchEv T
_ZNK6lczero6Search25GetBestChildNoTemperatureEPNS_4NodeEi T
_ZNK6lczero6Search28GetBestChildrenNoTemperatureEPNS_4NodeEii T
_ZNK6lczero6Search31GetBestRootChildWithTemperatureEf T
_ZNK6lczero8Position11DebugStringB5cxx11Ev T
_ZNK6lczero8Position4HashEv T
_ZNK6lczero9Histogram4DumpEv T
_ZNK6lczero9Histogram8GetIndexEd T
_ZNK6lczero9IntOption15GetOptionStringB5cxx11ERKNS_11OptionsDictE T
_ZNK6lczero9IntOption17ValidateIntStringERKNSt7__cxx1112basic_stringIcSt11char_traitsIcESaIcEEE T
_ZNK6lczero9IntOption6GetValERKNS_11OptionsDictE T
_ZNK6lczero9IntOption6SetValEPNS_11OptionsDictERKi T
_ZNK6lczero9IntOption7GetHelpB5cxx11ERKNS_11OptionsDictE T
_ZNSt17_Function_handlerIFvRKN6lczero12BestMoveInfoEESt5_BindIFMNS0_7UciLoopEFvS3_EPNS0_10EngineLoopESt12_PlaceholderILi1EEEEE10_M_managerERSt9_Any_dataRKSG_St18_Manager_operation T
_ZNSt17_Function_handlerIFvRKN6lczero12BestMoveInfoEESt5_BindIFMNS0_7UciLoopEFvS3_EPNS0_10EngineLoopESt12_PlaceholderILi1EEEEE9_M_invokeERKSt9_Any_dataS3_ T
_ZNSt17_Function_handlerIFvRKN6lczero12BestMoveInfoEESt5_BindIFMNS0_7UciLoopEFvS3_EPNS0_12SelfPlayLoopESt12_PlaceholderILi1EEEEE10_M_managerERSt9_Any_dataRKSG_St18_Manager_operation T
_ZNSt17_Function_handlerIFvRKN6lczero12BestMoveInfoEESt5_BindIFMNS0_7UciLoopEFvS3_EPNS0_12SelfPlayLoopESt12_PlaceholderILi1EEEEE9_M_invokeERKSt9_Any_dataS3_ T
_ZNSt17_Function_handlerIFvRKN6lczero12BestMoveInfoEESt5_BindIFMNS0_9BenchmarkEFvS3_EPS6_St12_PlaceholderILi1EEEEE10_M_managerERSt9_Any_dataRKSF_St18_Manager_operation T
_ZNSt17_Function_handlerIFvRKN6lczero12BestMoveInfoEESt5_BindIFMNS0_9BenchmarkEFvS3_EPS6_St12_PlaceholderILi1EEEEE9_M_invokeERKSt9_Any_dataS3_ T
_ZNSt17_Function_handlerIFvRKN6lczero14TournamentInfoEESt5_BindIFMNS0_12SelfPlayLoopEFvS3_EPS6_St12_PlaceholderILi1EEEEE10_M_managerERSt9_Any_dataRKSF_St18_Manager_operation T
_ZNSt17_Function_handlerIFvRKN6lczero14TournamentInfoEESt5_BindIFMNS0_12SelfPlayLoopEFvS3_EPS6_St12_PlaceholderILi1EEEEE9_M_invokeERKSt9_Any_dataS3_ T
_ZNSt17_Function_handlerIFvRKN6lczero8GameInfoEESt5_BindIFMNS0_12SelfPlayLoopEFvS3_EPS6_St12_PlaceholderILi1EEEEE10_M_managerERSt9_Any_dataRKSF_St18_Manager_operation T
_ZNSt17_Function_handlerIFvRKN6lczero8GameInfoEESt5_BindIFMNS0_12SelfPlayLoopEFvS3_EPS6_St12_PlaceholderILi1EEEEE9_M_invokeERKSt9_Any_dataS3_ T
_ZNSt17_Function_handlerIFvRKSt6vectorIN6lczero12ThinkingInfoESaIS2_EEESt5_BindIFMNS1_7UciLoopEFvS6_EPNS1_10EngineLoopESt12_PlaceholderILi1EEEEE10_M_managerERSt9_Any_dataRKSJ_St18_Manager_operation T
_ZNSt17_Function_handlerIFvRKSt6vectorIN6lczero12ThinkingInfoESaIS2_EEESt5_BindIFMNS1_7UciLoopEFvS6_EPNS1_10EngineLoopESt12_PlaceholderILi1EEEEE9_M_invokeERKSt9_Any_dataS6_ T
_ZNSt17_Function_handlerIFvRKSt6vectorIN6lczero12ThinkingInfoESaIS2_EEESt5_BindIFMNS1_7UciLoopEFvS6_EPNS1_12SelfPlayLoopESt12_PlaceholderILi1EEEEE10_M_managerERSt9_Any_dataRKSJ_St18_Manager_operation T
_ZNSt17_Function_handlerIFvRKSt6vectorIN6lczero12ThinkingInfoESaIS2_EEESt5_BindIFMNS1_7UciLoopEFvS6_EPNS1_12SelfPlayLoopESt12_PlaceholderILi1EEEEE9_M_invokeERKSt9_Any_dataS6_ T
_ZNSt17_Function_handlerIFvRKSt6vectorIN6lczero12ThinkingInfoESaIS2_EEESt5_BindIFMNS1_9BenchmarkEFvS6_EPS9_St12_PlaceholderILi1EEEEE10_M_managerERSt9_Any_dataRKSI_St18_Manager_operation T
_ZNSt17_Function_handlerIFvRKSt6vectorIN6lczero12ThinkingInfoESaIS2_EEESt5_BindIFMNS1_9BenchmarkEFvS6_EPS9_St12_PlaceholderILi1EEEEE9_M_invokeERKSt9_Any_dataS6_ T
_ZSt19piecewise_construct R
_ZTIN6lczero10BoolOptionE D 18
_ZTIN6lczero10EngineLoopE D 18
_ZTIN6lczero10LogMessageE D 18
_ZTIN6lczero11FloatOptionE D 18
_ZTIN6lczero11TimeManagerE D 10
_ZTIN6lczero12ChoiceOptionE D 18
_ZTIN6lczero12DepthStopperE D 18
_ZTIN6lczero12ProtoMessageE D 10
_ZTIN6lczero12SelfPlayLoopE D 18
_ZTIN6lczero12StringOptionE D 18
_ZTIN6lczero12UciResponderE D 10
_ZTIN6lczero13OptionsParser6OptionE D 10
_ZTIN6lczero13SearchStopperE D 10
_ZTIN6lczero13VisitsStopperE D 18
_ZTIN6lczero14KldGainStopperE D 18
_ZTIN6lczero15PlayoutsStopperE D 18
_ZTIN6lczero15SyzygyTablebaseE D 10
_ZTIN6lczero16GenericOnnxConstIiEE D 18
_ZTIN6lczero16GenericOnnxConstIlEE D 18
_ZTIN6lczero16StderrLogMessageE D 18
_ZTIN6lczero16StdoutLogMessageE D 18
_ZTIN6lczero16TimeLimitStopperE D 18
_ZTIN6lczero18NetworkComputationE D 10
_ZTIN6lczero19SmartPruningStopperE D 18
_ZTIN6lczero20ChainedSearchStopperE D 18
_ZTIN6lczero23FloatOnnxWeightsAdapterE D 18
_ZTIN6lczero24TransformingUciResponderE D 18
_ZTIN6lczero7NetworkE D 10
_ZTIN6lczero7UciLoopE D 10
_ZTIN6lczero9ExceptionE D 18
_ZTIN6lczero9IntOptionE D 18
_ZTIN6lczero9OnnxConstE D 10
_ZTISt11_Mutex_baseILN9__gnu_cxx12_Lock_policyE2EE D 10
_ZTISt16_Sp_counted_baseILN9__gnu_cxx12_Lock_policyE2EE D 18
_ZTISt17_Weak_result_typeIMN6lczero12SelfPlayLoopEFvRKNS0_14TournamentInfoEEE D 18
_ZTISt17_Weak_result_typeIMN6lczero12SelfPlayLoopEFvRKNS0_8GameInfoEEE D 18
_ZTISt17_Weak_result_typeIMN6lczero7UciLoopEFvRKNS0_12BestMoveInfoEEE D 18
_ZTISt17_Weak_result_typeIMN6lczero7UciLoopEFvRKSt6vectorINS0_12ThinkingInfoESaIS3_EEEE D 18
_ZTISt17_Weak_result_typeIMN6lczero9BenchmarkEFvRKNS0_12BestMoveInfoEEE D 18
_ZTISt17_Weak_result_typeIMN6lczero9BenchmarkEFvRKSt6vectorINS0_12ThinkingInfoESaIS3_EEEE D 18
_ZTISt19_Sp_make_shared_tag D 10
_ZTISt24_Weak_result_type_memfunIMN6lczero12SelfPlayLoopEFvRKNS0_14TournamentInfoEELb1EE D 10
_ZTISt24_Weak_result_type_memfunIMN6lczero12SelfPlayLoopEFvRKNS0_8GameInfoEELb1EE D 10
_ZTISt24_Weak_result_type_memfunIMN6lczero7UciLoopEFvRKNS0_12BestMoveInfoEELb1EE D 10
_ZTISt24_Weak_result_type_memfunIMN6lczero7UciLoopEFvRKSt6vectorINS0_12ThinkingInfoESaIS3_EEELb1EE D 10
_ZTISt24_Weak_result_type_memfunIMN6lczero9BenchmarkEFvRKNS0_12BestMoveInfoEELb1EE D 10
_ZTISt24_Weak_result_type_memfunIMN6lczero9BenchmarkEFvRKSt6vectorINS0_12ThinkingInfoESaIS3_EEELb1EE D 10
_ZTISt5_BindIFMN6lczero12SelfPlayLoopEFvRKNS0_14TournamentInfoEEPS1_St12_PlaceholderILi1EEEE D 18
_ZTISt5_BindIFMN6lczero12SelfPlayLoopEFvRKNS0_8GameInfoEEPS1_St12_PlaceholderILi1EEEE D 18
_ZTISt5_BindIFMN6lczero7UciLoopEFvRKNS0_12BestMoveInfoEEPNS0_10EngineLoopESt12_PlaceholderILi1EEEE D 18
_ZTISt5_BindIFMN6lczero7UciLoopEFvRKNS0_12BestMoveInfoEEPNS0_12SelfPlayLoopESt12_PlaceholderILi1EEEE D 18
_ZTISt5_BindIFMN6lczero7UciLoopEFvRKSt6vectorINS0_12ThinkingInfoESaIS3_EEEPNS0_10EngineLoopESt12_PlaceholderILi1EEEE D 18
_ZTISt5_BindIFMN6lczero7UciLoopEFvRKSt6vectorINS0_12ThinkingInfoESaIS3_EEEPNS0_12SelfPlayLoopESt12_PlaceholderILi1EEEE D 18
_ZTISt5_BindIFMN6lczero9BenchmarkEFvRKNS0_12BestMoveInfoEEPS1_St12_PlaceholderILi1EEEE D 18
_ZTISt5_BindIFMN6lczero9BenchmarkEFvRKSt6vectorINS0_12ThinkingInfoESaIS3_EEEPS1_St12_PlaceholderILi1EEEE D 18
_ZTSN6lczero10BoolOptionE R
_ZTSN6lczero10EngineLoopE R
_ZTSN6lczero10LogMessageE R
_ZTSN6lczero11FloatOptionE R
_ZTSN6lczero11TimeManagerE R
_ZTSN6lczero12ChoiceOptionE R
_ZTSN6lczero12DepthStopperE R
_ZTSN6lczero12ProtoMessageE R
_ZTSN6lczero12SelfPlayLoopE R
_ZTSN6lczero12StringOptionE R
_ZTSN6lczero12UciResponderE R
_ZTSN6lczero13OptionsParser6OptionE R
_ZTSN6lczero13SearchStopperE R
_ZTSN6lczero13VisitsStopperE R
_ZTSN6lczero14Int32OnnxConstE R
_ZTSN6lczero14Int64OnnxConstE R
_ZTSN6lczero14KldGainStopperE R
_ZTSN6lczero15PlayoutsStopperE R
_ZTSN6lczero15SyzygyTablebaseE R
_ZTSN6lczero16GenericOnnxConstIiEE R
_ZTSN6lczero16GenericOnnxConstIlEE R
_ZTSN6lczero16StderrLogMessageE R
_ZTSN6lczero16StdoutLogMessageE R
_ZTSN6lczero16TimeLimitStopperE R
_ZTSN6lczero17WDLResponseFilterE R
_ZTSN6lczero18NetworkComputationE R
_ZTSN6lczero19Chess960TransformerE R
_ZTSN6lczero19SmartPruningStopperE R
_ZTSN6lczero20CallbackUciResponderE R
_ZTSN6lczero20ChainedSearchStopperE R
_ZTSN6lczero21MemoryWatchingStopperE R
_ZTSN6lczero23FloatOnnxWeightsAdapterE R
_ZTSN6lczero23MovesLeftResponseFilterE R
_ZTSN6lczero24TransformingUciResponderE R
_ZTSN6lczero28NonOwningUciRespondForwarderE R
_ZTSN6lczero7NetworkE R
_ZTSN6lczero7UciLoopE R
_ZTSN6lczero9ExceptionE R
_ZTSN6lczero9IntOptionE R
_ZTSN6lczero9OnnxConstE R
_ZTSN8pblczero10GraphProtoE R
_ZTSN8pblczero10ModelProtoE R
_ZTSN8pblczero11TensorProtoE R
_ZTSN8pblczero13EngineVersionE R
_ZTSN8pblczero13NetworkFormatE R
_ZTSN8pblczero14AttributeProtoE R
_ZTSN8pblczero14TrainingParamsE R
_ZTSN8pblczero14ValueInfoProtoE R
_ZTSN8pblczero16TensorShapeProto9DimensionE R
_ZTSN8pblczero16TensorShapeProtoE R
_ZTSN8pblczero18OperatorSetIdProtoE R
_ZTSN8pblczero3NetE R
_ZTSN8pblczero6FormatE R
_ZTSN8pblczero7Weights5LayerE R
_ZTSN8pblczero7Weights6SEunitE R
_ZTSN8pblczero7Weights8ResidualE R
_ZTSN8pblczero7Weights9ConvBlockE R
_ZTSN8pblczero7WeightsE R
_ZTSN8pblczero9NodeProtoE R
_ZTSN8pblczero9OnnxModelE R
_ZTSN8pblczero9TypeProto6TensorE R
_ZTSN8pblczero9TypeProtoE R
_ZTSNSt6thread11_State_implINS_8_InvokerISt5tupleIJZN6lczero12SearchWorkerC4EPNS3_6SearchERKNS3_12SearchParamsEiEUlvE_EEEEEE R
_ZTSSt11_Mutex_baseILN9__gnu_cxx12_Lock_policyE2EE R
_ZTSSt14default_deleteIN6lczero18NetworkComputationEE R
_ZTSSt16_Sp_counted_baseILN9__gnu_cxx12_Lock_policyE2EE R
_ZTSSt17_Weak_result_typeIMN6lczero12SelfPlayLoopEFvRKNS0_14TournamentInfoEEE R
_ZTSSt17_Weak_result_typeIMN6lczero12SelfPlayLoopEFvRKNS0_8GameInfoEEE R
_ZTSSt17_Weak_result_typeIMN6lczero7UciLoopEFvRKNS0_12BestMoveInfoEEE R
_ZTSSt17_Weak_result_typeIMN6lczero7UciLoopEFvRKSt6vectorINS0_12ThinkingInfoESaIS3_EEEE R
_ZTSSt17_Weak_result_typeIMN6lczero9BenchmarkEFvRKNS0_12BestMoveInfoEEE R
_ZTSSt17_Weak_result_typeIMN6lczero9BenchmarkEFvRKSt6vectorINS0_12ThinkingInfoESaIS3_EEEE R
_ZTSSt19_Sp_counted_deleterIPN6lczero18NetworkComputationESt14default_deleteIS1_ESaIvELN9__gnu_cxx12_Lock_policyE2EE R
_ZTSSt19_Sp_make_shared_tag R
_ZTSSt23_Sp_counted_ptr_inplaceIN6lczero14HashKeyedCacheINS0_15CachedNNRequestEEESaIS3_ELN9__gnu_cxx12_Lock_policyE2EE R
_ZTSSt23_Sp_counted_ptr_inplaceIN6lczero8NodeTreeESaIS1_ELN9__gnu_cxx12_Lock_policyE2EE R
_ZTSSt24_Weak_result_type_memfunIMN6lczero12SelfPlayLoopEFvRKNS0_14TournamentInfoEELb1EE R
_ZTSSt24_Weak_result_type_memfunIMN6lczero12SelfPlayLoopEFvRKNS0_8GameInfoEELb1EE R
_ZTSSt24_Weak_result_type_memfunIMN6lczero7UciLoopEFvRKNS0_12BestMoveInfoEELb1EE R
_ZTSSt24_Weak_result_type_memfunIMN6lczero7UciLoopEFvRKSt6vectorINS0_12ThinkingInfoESaIS3_EEELb1EE R
_ZTSSt24_Weak_result_type_memfunIMN6lczero9BenchmarkEFvRKNS0_12BestMoveInfoEELb1EE R
_ZTSSt24_Weak_result_type_memfunIMN6lczero9BenchmarkEFvRKSt6vectorINS0_12ThinkingInfoESaIS3_EEELb1EE R
_ZTSSt5_BindIFMN6lczero12SelfPlayLoopEFvRKNS0_14TournamentInfoEEPS1_St12_PlaceholderILi1EEEE R
_ZTSSt5_BindIFMN6lczero12SelfPlayLoopEFvRKNS0_8GameInfoEEPS1_St12_PlaceholderILi1EEEE R
_ZTSSt5_BindIFMN6lczero7UciLoopEFvRKNS0_12BestMoveInfoEEPNS0_10EngineLoopESt12_PlaceholderILi1EEEE R
_ZTSSt5_BindIFMN6lczero7UciLoopEFvRKNS0_12BestMoveInfoEEPNS0_12SelfPlayLoopESt12_PlaceholderILi1EEEE R
_ZTSSt5_BindIFMN6lczero7UciLoopEFvRKSt6vectorINS0_12ThinkingInfoESaIS3_EEEPNS0_10EngineLoopESt12_PlaceholderILi1EEEE R
_ZTSSt5_BindIFMN6lczero7UciLoopEFvRKSt6vectorINS0_12ThinkingInfoESaIS3_EEEPNS0_12SelfPlayLoopESt12_PlaceholderILi1EEEE R
_ZTSSt5_BindIFMN6lczero9BenchmarkEFvRKNS0_12BestMoveInfoEEPS1_St12_PlaceholderILi1EEEE R
_ZTSSt5_BindIFMN6lczero9BenchmarkEFvRKSt6vectorINS0_12ThinkingInfoESaIS3_EEEPS1_St12_PlaceholderILi1EEEE R
_ZTTN6lczero10LogMessageE D 30
_ZTTN6lczero16StderrLogMessageE D 30
_ZTTN6lczero16StdoutLogMessageE D 30
_ZTv0_n24_N6lczero10LogMessageD0Ev T
_ZTv0_n24_N6lczero10LogMessageD1Ev T
_ZTv0_n24_N6lczero16StderrLogMessageD0Ev T
_ZTv0_n24_N6lczero16StderrLogMessageD1Ev T
_ZTv0_n24_N6lczero16StdoutLogMessageD0Ev T
_ZTv0_n24_N6lczero16StdoutLogMessageD1Ev T
_ZTVN6lczero10BoolOptionE D 50
_ZTVN6lczero10EngineLoopE D 80
_ZTVN6lczero10LogMessageE D 50
_ZTVN6lczero11FloatOptionE D 50
_ZTVN6lczero12ChoiceOptionE D 50
_ZTVN6lczero12DepthStopperE D 30
_ZTVN6lczero12SelfPlayLoopE D 80
_ZTVN6lczero12StringOptionE D 50
_ZTVN6lczero13VisitsStopperE D 30
_ZTVN6lczero14KldGainStopperE D 30
_ZTVN6lczero15PlayoutsStopperE D 30
_ZTVN6lczero15SyzygyTablebaseE D 20
_ZTVN6lczero16StderrLogMessageE D 50
_ZTVN6lczero16StdoutLogMessageE D 50
_ZTVN6lczero16TimeLimitStopperE D 30
_ZTVN6lczero19SmartPruningStopperE D 30
_ZTVN6lczero20ChainedSearchStopperE D 30
_ZTVN6lczero23FloatOnnxWeightsAdapterE D 38
_ZTVN6lczero7UciLoopE D 80
_ZTVN6lczero9IntOptionE D 50
_ZZN5Eigen8internal20manage_caching_sizesENS_6ActionEPlS2_S2_E12m_cacheSizes B 18
_ZZNSt19_Sp_make_shared_tag5_S_tiEvE5__tag R
_ZZNSt9once_flag18_Prepare_executionC4IZSt9call_onceIRFvvEJEEvRS_OT_DpOT0_EUlvE_EERS6_ENUlvE_4_FUNEv T
